target datalayout = "e-m:e-p270:32:32-p271:32:32-p272:64:64-i64:64-i128:128-f80:128-n8:16:32:64-S128"
target triple = "x86_64-pc-linux-gnu"

%struct.H5FL_reg_head_t = type { i8, i32, i32, ptr, i64, ptr }
%struct.H5A_attr_table_t = type { i64, i64, ptr }

@H5_H5A_t_reg_free_list = global %struct.H5FL_reg_head_t { i8 0, i32 0, i32 0, ptr @.str, i64 104, ptr null }, align 8
@.str.3 = private unnamed_addr constant [100 x i8] c"generated/home/dtcxzyw/WorkSpace/Projects/compilers/llvm-opt-benchmark/bench/hdf5/hdf5/src/H5Aint.c\00", align 1
@H5E_ATTR_g = external global i64, align 8
@H5E_CANTALLOC_g = external global i64, align 8
@H5E_CANTCOPY_g = external global i64, align 8
@.str.98 = private unnamed_addr constant [21 x i8] c"can't copy attribute\00", align 1
@__func__.H5A__dense_build_table_cb = private unnamed_addr constant [26 x i8] c"H5A__dense_build_table_cb\00", align 1
@.str.100 = private unnamed_addr constant [25 x i8] c"can't allocate attribute\00", align 1

; Function Attrs: nounwind uwtable
define internal i32 @H5A__dense_build_table_cb(ptr noundef %0, ptr noundef %1) #0 {
  %3 = alloca ptr, align 8
  %4 = alloca ptr, align 8
  %5 = alloca ptr, align 8
  %6 = alloca i32, align 4
  %7 = alloca i8, align 1
  store ptr %0, ptr %3, align 8
  store ptr %1, ptr %4, align 8
  %8 = load ptr, ptr %4, align 8
  store ptr %8, ptr %5, align 8
  store i32 0, ptr %6, align 4
  store i8 0, ptr %7, align 1
  %9 = call noalias ptr @H5FL_reg_calloc(ptr noundef @H5_H5A_t_reg_free_list)
  %10 = load ptr, ptr %5, align 8
  %11 = getelementptr inbounds %struct.H5A_attr_table_t, ptr %10, i32 0, i32 2
  %12 = load ptr, ptr %11, align 8
  %13 = load ptr, ptr %5, align 8
  %14 = getelementptr inbounds %struct.H5A_attr_table_t, ptr %13, i32 0, i32 0
  %15 = load i64, ptr %14, align 8
  %16 = getelementptr inbounds ptr, ptr %12, i64 %15
  store ptr %9, ptr %16, align 8
  %17 = icmp eq ptr null, %9
  br i1 %17, label %18, label %33

18:                                               ; preds = %2
  br label %19

19:                                               ; preds = %18
  br label %20

20:                                               ; preds = %19
  br label %21

21:                                               ; preds = %20
  %22 = load i64, ptr @H5E_ATTR_g, align 8
  %23 = load i64, ptr @H5E_CANTALLOC_g, align 8
  %24 = call i32 (ptr, ptr, i32, i64, i64, ptr, ...) @H5E_printf_stack(ptr noundef @.str.3, ptr noundef @__func__.H5A__dense_build_table_cb, i32 noundef 1570, i64 noundef %22, i64 noundef %23, ptr noundef @.str.100)
  br label %25

25:                                               ; preds = %21
  store i8 1, ptr %7, align 1
  %26 = load i8, ptr %7, align 1
  %27 = trunc i8 %26 to i1
  %28 = zext i1 %27 to i8
  store i8 %28, ptr %7, align 1
  br label %29

29:                                               ; preds = %25
  br label %30

30:                                               ; preds = %29
  store i32 -1, ptr %6, align 4
  br label %65

31:                                               ; No predecessors!
  br label %32

32:                                               ; preds = %31
  br label %33

33:                                               ; preds = %32, %2
  %34 = load ptr, ptr %5, align 8
  %35 = getelementptr inbounds %struct.H5A_attr_table_t, ptr %34, i32 0, i32 2
  %36 = load ptr, ptr %35, align 8
  %37 = load ptr, ptr %5, align 8
  %38 = getelementptr inbounds %struct.H5A_attr_table_t, ptr %37, i32 0, i32 0
  %39 = load i64, ptr %38, align 8
  %40 = getelementptr inbounds ptr, ptr %36, i64 %39
  %41 = load ptr, ptr %40, align 8
  %42 = load ptr, ptr %3, align 8
  %43 = call ptr @H5A__copy(ptr noundef %41, ptr noundef %42)
  %44 = icmp eq ptr null, %43
  br i1 %44, label %45, label %60

45:                                               ; preds = %33
  br label %46

46:                                               ; preds = %45
  br label %47

47:                                               ; preds = %46
  br label %48

48:                                               ; preds = %47
  %49 = load i64, ptr @H5E_ATTR_g, align 8
  %50 = load i64, ptr @H5E_CANTCOPY_g, align 8
  %51 = call i32 (ptr, ptr, i32, i64, i64, ptr, ...) @H5E_printf_stack(ptr noundef @.str.3, ptr noundef @__func__.H5A__dense_build_table_cb, i32 noundef 1574, i64 noundef %49, i64 noundef %50, ptr noundef @.str.98)
  br label %52

52:                                               ; preds = %48
  store i8 1, ptr %7, align 1
  %53 = load i8, ptr %7, align 1
  %54 = trunc i8 %53 to i1
  %55 = zext i1 %54 to i8
  store i8 %55, ptr %7, align 1
  br label %56

56:                                               ; preds = %52
  br label %57

57:                                               ; preds = %56
  store i32 -1, ptr %6, align 4
  br label %65

58:                                               ; No predecessors!
  br label %59

59:                                               ; preds = %58
  br label %60

60:                                               ; preds = %59, %33
  %61 = load ptr, ptr %5, align 8
  %62 = getelementptr inbounds %struct.H5A_attr_table_t, ptr %61, i32 0, i32 0
  %63 = load i64, ptr %62, align 8
  %64 = add i64 %63, 1
  store i64 %64, ptr %62, align 8
  br label %65

65:                                               ; preds = %60, %57, %30
  %66 = load i32, ptr %6, align 4
  ret i32 %66
}