; Function Attrs: nounwind uwtable
define internal range(i32 -1, 1) i32 @H5A__dense_build_table_cb(ptr noundef %0, ptr nocapture noundef %1) #0 {
  %3 = tail call noalias ptr @H5FL_reg_calloc(ptr noundef nonnull @H5_H5A_t_reg_free_list) #13
  %4 = getelementptr inbounds i8, ptr %1, i64 16
  %5 = load ptr, ptr %4, align 8
  %6 = load i64, ptr %1, align 8
  %7 = getelementptr inbounds ptr, ptr %5, i64 %6
  store ptr %3, ptr %7, align 8
  %8 = icmp eq ptr %3, null
  br i1 %8, label %9, label %13

9:                                                ; preds = %2
  %10 = load i64, ptr @H5E_ATTR_g, align 8
  %11 = load i64, ptr @H5E_CANTALLOC_g, align 8
  %12 = tail call i32 (ptr, ptr, i32, i64, i64, ptr, ...) @H5E_printf_stack(ptr noundef nonnull @.str.3, ptr noundef nonnull @__func__.H5A__dense_build_table_cb, i32 noundef 1570, i64 noundef %10, i64 noundef %11, ptr noundef nonnull @.str.100) #13
  br label %27

13:                                               ; preds = %2
  %14 = load ptr, ptr %4, align 8
  %15 = load i64, ptr %1, align 8
  %16 = getelementptr inbounds ptr, ptr %14, i64 %15
  %17 = load ptr, ptr %16, align 8
  %18 = tail call ptr @H5A__copy(ptr noundef %17, ptr noundef %0)
  %19 = icmp eq ptr %18, null
  br i1 %19, label %20, label %24

20:                                               ; preds = %13
  %21 = load i64, ptr @H5E_ATTR_g, align 8
  %22 = load i64, ptr @H5E_CANTCOPY_g, align 8
  %23 = tail call i32 (ptr, ptr, i32, i64, i64, ptr, ...) @H5E_printf_stack(ptr noundef nonnull @.str.3, ptr noundef nonnull @__func__.H5A__dense_build_table_cb, i32 noundef 1574, i64 noundef %21, i64 noundef %22, ptr noundef nonnull @.str.98) #13
  br label %27

24:                                               ; preds = %13
  %25 = load i64, ptr %1, align 8
  %26 = add i64 %25, 1
  store i64 %26, ptr %1, align 8
  br label %27

27:                                               ; preds = %24, %20, %9
  %.0 = phi i32 [ -1, %9 ], [ -1, %20 ], [ 0, %24 ]
  ret i32 %.0
}